	.text
	.attribute	4, 16
	.attribute	5, "rv64i2p1_m2p0_c2p0"
	.file	"ranges.c"
        .weak mygroup
mygroup:
        .quad 100
	.section	.text.foo,"axG",@progbits,mygroup,comdat
	.globl	foo
	.p2align	1
	.type	foo,@function
foo:
.Lfunc_begin0:
	.file	0 "/tmp/64bt" "ranges.c" md5 0x64638270d0b95af174d0648533f42356
	.loc	0 1 0
	.cfi_sections .debug_frame
	.cfi_startproc
	addi	sp, sp, -32
	.cfi_def_cfa_offset 32
	sd	ra, 24(sp)
	sd	s0, 16(sp)
	.cfi_offset ra, -8
	.cfi_offset s0, -16
	addi	s0, sp, 32
	.cfi_def_cfa s0, 0
	sw	a0, -20(s0)
	li	a0, 1
.Ltmp0:
	.loc	0 1 53 prologue_end
	ld	ra, 24(sp)
	ld	s0, 16(sp)
	.loc	0 1 53 epilogue_begin is_stmt 0
	addi	sp, sp, 32
	ret
.Ltmp1:
.Lfunc_end0:
	.size	foo, .Lfunc_end0-foo
	.cfi_endproc

	.section	.text.bar,"ax",@progbits
	.globl	bar
	.p2align	1
	.type	bar,@function
bar:
.Lfunc_begin1:
	.loc	0 3 0 is_stmt 1
	.cfi_startproc
	addi	sp, sp, -32
	.cfi_def_cfa_offset 32
	sd	ra, 24(sp)
	sd	s0, 16(sp)
	.cfi_offset ra, -8
	.cfi_offset s0, -16
	addi	s0, sp, 32
	.cfi_def_cfa s0, 0
	sw	a0, -20(s0)
	li	a0, 2
.Ltmp2:
	.loc	0 3 53 prologue_end
	ld	ra, 24(sp)
	ld	s0, 16(sp)
	.loc	0 3 53 epilogue_begin is_stmt 0
	addi	sp, sp, 32
	ret
.Ltmp3:
.Lfunc_end1:
	.size	bar, .Lfunc_end1-bar
	.cfi_endproc

	.section	.text.boo,"ax",@progbits
	.globl	boo
	.p2align	1
	.type	boo,@function
boo:
.Lfunc_begin2:
	.loc	0 5 0 is_stmt 1
	.cfi_startproc
	addi	sp, sp, -32
	.cfi_def_cfa_offset 32
	sd	ra, 24(sp)
	sd	s0, 16(sp)
	.cfi_offset ra, -8
	.cfi_offset s0, -16
	addi	s0, sp, 32
	.cfi_def_cfa s0, 0
	sw	a0, -20(s0)
	li	a0, 3
.Ltmp4:
	.loc	0 5 53 prologue_end
	ld	ra, 24(sp)
	ld	s0, 16(sp)
	.loc	0 5 53 epilogue_begin is_stmt 0
	addi	sp, sp, 32
	ret
.Ltmp5:
.Lfunc_end2:
	.size	boo, .Lfunc_end2-boo
	.cfi_endproc

	.section	.text.coo,"ax",@progbits
	.weak	coo
	.p2align	1
	.type	coo,@function
coo:
.Lfunc_begin3:
	.loc	0 7 0 is_stmt 1
	.cfi_startproc
	addi	sp, sp, -16
	.cfi_def_cfa_offset 16
	sd	ra, 8(sp)
	sd	s0, 0(sp)
	.cfi_offset ra, -8
	.cfi_offset s0, -16
	addi	s0, sp, 16
	.cfi_def_cfa s0, 0
	li	a0, 0
.Ltmp6:
	.loc	0 7 61 prologue_end
	ld	ra, 8(sp)
	ld	s0, 0(sp)
	.loc	0 7 61 epilogue_begin is_stmt 0
	addi	sp, sp, 16
	ret
.Ltmp7:
.Lfunc_end3:
	.size	coo, .Lfunc_end3-coo
	.cfi_endproc

	.section	.text.zoo,"ax",@progbits
	.globl	zoo
	.p2align	1
	.type	zoo,@function
zoo:
.Lfunc_begin4:
	.loc	0 9 0 is_stmt 1
	.cfi_startproc
	addi	sp, sp, -32
	.cfi_def_cfa_offset 32
	sd	ra, 24(sp)
	sd	s0, 16(sp)
	.cfi_offset ra, -8
	.cfi_offset s0, -16
	addi	s0, sp, 32
	.cfi_def_cfa s0, 0
	sw	a0, -20(s0)
	li	a0, 3
.Ltmp8:
	.loc	0 9 53 prologue_end
	ld	ra, 24(sp)
	ld	s0, 16(sp)
	.loc	0 9 53 epilogue_begin is_stmt 0
	addi	sp, sp, 32
	ret
.Ltmp9:
.Lfunc_end4:
	.size	zoo, .Lfunc_end4-zoo
	.cfi_endproc

	.section	.text.baz,"ax",@progbits
	.globl	baz
	.p2align	1
	.type	baz,@function
baz:
.Lfunc_begin5:
	.loc	0 12 0 is_stmt 1
	.cfi_startproc
	addi	sp, sp, -48
	.cfi_def_cfa_offset 48
	sd	ra, 40(sp)
	sd	s0, 32(sp)
	.cfi_offset ra, -8
	.cfi_offset s0, -16
	addi	s0, sp, 48
	.cfi_def_cfa s0, 0
	sw	a0, -20(s0)
.Ltmp10:
	.loc	0 13 14 prologue_end
	lw	a0, -20(s0)
	.loc	0 13 10 is_stmt 0
	call	foo
	.loc	0 13 26
	sd	a0, -40(s0)
	lw	a0, -20(s0)
	.loc	0 13 22
	call	boo
	mv	a1, a0
	.loc	0 13 20
	ld	a0, -40(s0)
	addw	a0, a0, a1
	.loc	0 13 39
	sd	a0, -32(s0)
	lw	a0, -20(s0)
	.loc	0 13 35
	call	zoo
	mv	a1, a0
	.loc	0 13 32
	ld	a0, -32(s0)
	addw	a0, a0, a1
	.loc	0 13 3
	ld	ra, 40(sp)
	ld	s0, 32(sp)
	.loc	0 13 3 epilogue_begin
	addi	sp, sp, 48
	ret
.Ltmp11:
.Lfunc_end5:
	.size	baz, .Lfunc_end5-baz
	.cfi_endproc

	.section	".note.GNU-stack","",@progbits
	.addrsig
	.addrsig_sym foo
	.addrsig_sym boo
	.addrsig_sym zoo